target datalayout = "e-m:e-p270:32:32-p271:32:32-p272:64:64-i64:64-i128:128-f80:128-n8:16:32:64-S128"
target triple = "x86_64-pc-linux-gnu"

%struct.KLVPacket = type { [16 x i8], i64, i64, i64 }
%struct.MXFContext = type { ptr, ptr, i32, i32, ptr, i32, ptr, i32, [26 x %struct.MXFMetadataSetGroup], ptr, ptr, ptr, i32, i64, %struct.KLVPacket, i32, ptr, i32, i64, i32, i32, ptr, i32 }
%struct.MXFMetadataSetGroup = type { ptr, i32 }

@.str.58 = private unnamed_addr constant [24 x i8] c"Multiple packages_refs\0A\00", align 1

; Function Attrs: nounwind uwtable
define internal i32 @mxf_read_content_storage(ptr noundef %0, ptr noundef %1, i32 noundef %2, i32 noundef %3, ptr noundef %4, i64 noundef %5) #0 {
  %7 = alloca i32, align 4
  %8 = alloca ptr, align 8
  %9 = alloca ptr, align 8
  %10 = alloca i32, align 4
  %11 = alloca i32, align 4
  %12 = alloca ptr, align 8
  %13 = alloca i64, align 8
  %14 = alloca ptr, align 8
  %15 = alloca i32, align 4
  store ptr %0, ptr %8, align 8, !tbaa !90
  store ptr %1, ptr %9, align 8, !tbaa !138
  store i32 %2, ptr %10, align 4, !tbaa !47
  store i32 %3, ptr %11, align 4, !tbaa !47
  store ptr %4, ptr %12, align 8, !tbaa !13
  store i64 %5, ptr %13, align 8, !tbaa !37
  call void @llvm.lifetime.start.p0(i64 8, ptr %14) #13
  %16 = load ptr, ptr %8, align 8, !tbaa !90
  store ptr %16, ptr %14, align 8, !tbaa !35
  %17 = load i32, ptr %10, align 4, !tbaa !47
  switch i32 %17, label %41 [
    i32 6401, label %18
    i32 6402, label %34
  ]

18:                                               ; preds = %6
  %19 = load ptr, ptr %14, align 8, !tbaa !35
  %20 = getelementptr inbounds nuw %struct.MXFContext, ptr %19, i32 0, i32 4
  %21 = load ptr, ptr %20, align 8, !tbaa !149
  %22 = icmp ne ptr %21, null
  br i1 %22, label %23, label %27

23:                                               ; preds = %18
  %24 = load ptr, ptr %14, align 8, !tbaa !35
  %25 = getelementptr inbounds nuw %struct.MXFContext, ptr %24, i32 0, i32 9
  %26 = load ptr, ptr %25, align 8, !tbaa !45
  call void (ptr, i32, ptr, ...) @av_log(ptr noundef %26, i32 noundef 40, ptr noundef @.str.58)
  br label %27

27:                                               ; preds = %23, %18
  %28 = load ptr, ptr %9, align 8, !tbaa !138
  %29 = load ptr, ptr %14, align 8, !tbaa !35
  %30 = getelementptr inbounds nuw %struct.MXFContext, ptr %29, i32 0, i32 4
  %31 = load ptr, ptr %14, align 8, !tbaa !35
  %32 = getelementptr inbounds nuw %struct.MXFContext, ptr %31, i32 0, i32 5
  %33 = call i32 @mxf_read_strong_ref_array(ptr noundef %28, ptr noundef %30, ptr noundef %32)
  store i32 %33, ptr %7, align 4
  store i32 1, ptr %15, align 4
  br label %42

34:                                               ; preds = %6
  %35 = load ptr, ptr %9, align 8, !tbaa !138
  %36 = load ptr, ptr %14, align 8, !tbaa !35
  %37 = getelementptr inbounds nuw %struct.MXFContext, ptr %36, i32 0, i32 6
  %38 = load ptr, ptr %14, align 8, !tbaa !35
  %39 = getelementptr inbounds nuw %struct.MXFContext, ptr %38, i32 0, i32 7
  %40 = call i32 @mxf_read_strong_ref_array(ptr noundef %35, ptr noundef %37, ptr noundef %39)
  store i32 %40, ptr %7, align 4
  store i32 1, ptr %15, align 4
  br label %42

41:                                               ; preds = %6
  store i32 0, ptr %7, align 4
  store i32 1, ptr %15, align 4
  br label %42

42:                                               ; preds = %41, %34, %27
  call void @llvm.lifetime.end.p0(i64 8, ptr %14) #13
  %43 = load i32, ptr %7, align 4
  ret i32 %43
}