; Function Attrs: nounwind uwtable
define internal i32 @mxf_read_content_storage(ptr noundef captures(none) %0, ptr noundef %1, i32 noundef %2, i32 %3, ptr readnone captures(none) %4, i64 %5) #1 {
  switch i32 %2, label %17 [
    i32 6401, label %7
    i32 6402, label %13
  ]

7:                                                ; preds = %6
  %8 = getelementptr inbounds nuw i8, ptr %0, i64 24
  %9 = load ptr, ptr %8, align 8, !tbaa !61
  %.not = icmp eq ptr %9, null
  br i1 %.not, label %.sink.split, label %10

10:                                               ; preds = %7
  %11 = getelementptr inbounds nuw i8, ptr %0, i64 472
  %12 = load ptr, ptr %11, align 8, !tbaa !39
  tail call void (ptr, i32, ptr, ...) @av_log(ptr noundef %12, i32 noundef 40, ptr noundef nonnull @.str.58) #15
  br label %.sink.split

13:                                               ; preds = %6
  %14 = getelementptr inbounds nuw i8, ptr %0, i64 40
  br label %.sink.split

.sink.split:                                      ; preds = %7, %10, %13
  %.sink11 = phi i64 [ 48, %13 ], [ 32, %10 ], [ 32, %7 ]
  %.sink = phi ptr [ %14, %13 ], [ %8, %10 ], [ %8, %7 ]
  %15 = getelementptr inbounds nuw i8, ptr %0, i64 %.sink11
  %16 = tail call fastcc i32 @mxf_read_strong_ref_array(ptr noundef %1, ptr noundef nonnull %.sink, ptr noundef nonnull %15)
  br label %17

17:                                               ; preds = %.sink.split, %6
  %.0 = phi i32 [ 0, %6 ], [ %16, %.sink.split ]
  ret i32 %.0
}